; Function Attrs: nounwind uwtable
define ptr @l_Lean_Elab_Tactic_BVDecide_Frontend_Normalize_Op_ofApp2_x3f(ptr noundef %0) local_unnamed_addr #0 {
  %2 = ptrtoint ptr %0 to i64
  %3 = and i64 %2, 1
  %.not.i25 = icmp eq i64 %3, 0
  br i1 %.not.i25, label %lean_obj_tag.exit.thread, label %lean_obj_tag.exit

lean_obj_tag.exit:                                ; preds = %1
  %4 = and i64 %2, 8589934590
  %5 = icmp eq i64 %4, 10
  br i1 %5, label %8, label %lean_dec.exit16

lean_obj_tag.exit.thread:                         ; preds = %1
  %6 = getelementptr i8, ptr %0, i64 4
  %.val.i = load i32, ptr %6, align 4
  %.mask = and i32 %.val.i, -16777216
  %7 = icmp eq i32 %.mask, 83886080
  br i1 %7, label %8, label %.thread

8:                                                ; preds = %lean_obj_tag.exit.thread, %lean_obj_tag.exit
  %9 = getelementptr inbounds nuw i8, ptr %0, i64 8
  %10 = load ptr, ptr %9, align 8, !tbaa !4
  %11 = ptrtoint ptr %10 to i64
  %12 = and i64 %11, 1
  %.not = icmp eq i64 %12, 0
  br i1 %.not, label %13, label %lean_inc.exit15

13:                                               ; preds = %8
  %.val.i26 = load i32, ptr %10, align 4, !tbaa !8
  %14 = icmp sgt i32 %.val.i26, 0
  br i1 %14, label %15, label %17, !prof !11

15:                                               ; preds = %13
  %16 = add nuw i32 %.val.i26, 1
  store i32 %16, ptr %10, align 4, !tbaa !8
  br label %lean_inc.exit15

17:                                               ; preds = %13
  %.not.i27 = icmp eq i32 %.val.i26, 0
  br i1 %.not.i27, label %lean_inc.exit15, label %18

18:                                               ; preds = %17
  tail call void @lean_inc_ref_cold(ptr noundef nonnull %10) #5
  br label %lean_inc.exit15

lean_inc.exit15:                                  ; preds = %18, %17, %15, %8
  br i1 %.not.i25, label %19, label %lean_dec.exit18

19:                                               ; preds = %lean_inc.exit15
  %20 = load i32, ptr %0, align 4, !tbaa !8
  %21 = icmp sgt i32 %20, 1
  br i1 %21, label %22, label %24, !prof !11

22:                                               ; preds = %19
  %23 = add nsw i32 %20, -1
  store i32 %23, ptr %0, align 4, !tbaa !8
  br label %lean_dec.exit18

24:                                               ; preds = %19
  %.not.i = icmp eq i32 %20, 0
  br i1 %.not.i, label %lean_dec.exit18, label %25

25:                                               ; preds = %24
  tail call void @lean_dec_ref_cold(ptr noundef nonnull %0) #5
  br label %lean_dec.exit18

lean_dec.exit18:                                  ; preds = %25, %24, %22, %lean_inc.exit15
  br i1 %.not, label %lean_obj_tag.exit31, label %lean_obj_tag.exit31.thread

lean_obj_tag.exit31:                              ; preds = %lean_dec.exit18
  %26 = getelementptr i8, ptr %10, i64 4
  %.val.i30 = load i32, ptr %26, align 4
  %.mask40 = and i32 %.val.i30, -16777216
  %27 = icmp eq i32 %.mask40, 83886080
  br i1 %27, label %30, label %49

lean_obj_tag.exit31.thread:                       ; preds = %lean_dec.exit18
  %28 = and i64 %11, 8589934590
  %29 = icmp eq i64 %28, 10
  br i1 %29, label %30, label %lean_dec.exit16

30:                                               ; preds = %lean_obj_tag.exit31.thread, %lean_obj_tag.exit31
  %31 = getelementptr inbounds nuw i8, ptr %10, i64 8
  %32 = load ptr, ptr %31, align 8, !tbaa !4
  %33 = ptrtoint ptr %32 to i64
  %34 = and i64 %33, 1
  %.not37 = icmp eq i64 %34, 0
  br i1 %.not37, label %35, label %lean_inc.exit

35:                                               ; preds = %30
  %.val.i32 = load i32, ptr %32, align 4, !tbaa !8
  %36 = icmp sgt i32 %.val.i32, 0
  br i1 %36, label %37, label %39, !prof !11

37:                                               ; preds = %35
  %38 = add nuw i32 %.val.i32, 1
  store i32 %38, ptr %32, align 4, !tbaa !8
  br label %lean_inc.exit

39:                                               ; preds = %35
  %.not.i33 = icmp eq i32 %.val.i32, 0
  br i1 %.not.i33, label %lean_inc.exit, label %40

40:                                               ; preds = %39
  tail call void @lean_inc_ref_cold(ptr noundef nonnull %32) #5
  br label %lean_inc.exit

lean_inc.exit:                                    ; preds = %40, %39, %37, %30
  br i1 %.not, label %41, label %lean_dec.exit17

41:                                               ; preds = %lean_inc.exit
  %42 = load i32, ptr %10, align 4, !tbaa !8
  %43 = icmp sgt i32 %42, 1
  br i1 %43, label %44, label %46, !prof !11

44:                                               ; preds = %41
  %45 = add nsw i32 %42, -1
  store i32 %45, ptr %10, align 4, !tbaa !8
  br label %lean_dec.exit17

46:                                               ; preds = %41
  %.not.i19 = icmp eq i32 %42, 0
  br i1 %.not.i19, label %lean_dec.exit17, label %47

47:                                               ; preds = %46
  tail call void @lean_dec_ref_cold(ptr noundef nonnull %10) #5
  br label %lean_dec.exit17

lean_dec.exit17:                                  ; preds = %47, %46, %44, %lean_inc.exit
  %48 = tail call ptr @l_Lean_Elab_Tactic_BVDecide_Frontend_Normalize_Op_ofExpr_x3f(ptr noundef %32)
  br label %lean_dec.exit16

49:                                               ; preds = %lean_obj_tag.exit31
  %50 = load i32, ptr %10, align 4, !tbaa !8
  %51 = icmp sgt i32 %50, 1
  br i1 %51, label %52, label %54, !prof !11

52:                                               ; preds = %49
  %53 = add nsw i32 %50, -1
  store i32 %53, ptr %10, align 4, !tbaa !8
  br label %lean_dec.exit16

54:                                               ; preds = %49
  %.not.i21 = icmp eq i32 %50, 0
  br i1 %.not.i21, label %lean_dec.exit16, label %55

55:                                               ; preds = %54
  tail call void @lean_dec_ref_cold(ptr noundef nonnull %10) #5
  br label %lean_dec.exit16

.thread:                                          ; preds = %lean_obj_tag.exit.thread
  %56 = load i32, ptr %0, align 4, !tbaa !8
  %57 = icmp sgt i32 %56, 1
  br i1 %57, label %58, label %60, !prof !11

58:                                               ; preds = %.thread
  %59 = add nsw i32 %56, -1
  store i32 %59, ptr %0, align 4, !tbaa !8
  br label %lean_dec.exit16

60:                                               ; preds = %.thread
  %.not.i23 = icmp eq i32 %56, 0
  br i1 %.not.i23, label %lean_dec.exit16, label %61

61:                                               ; preds = %60
  tail call void @lean_dec_ref_cold(ptr noundef nonnull %0) #5
  br label %lean_dec.exit16

lean_dec.exit16:                                  ; preds = %lean_obj_tag.exit31.thread, %lean_obj_tag.exit, %58, %60, %61, %52, %54, %55, %lean_dec.exit17
  %.1 = phi ptr [ %48, %lean_dec.exit17 ], [ inttoptr (i64 1 to ptr), %55 ], [ inttoptr (i64 1 to ptr), %54 ], [ inttoptr (i64 1 to ptr), %52 ], [ inttoptr (i64 1 to ptr), %61 ], [ inttoptr (i64 1 to ptr), %60 ], [ inttoptr (i64 1 to ptr), %58 ], [ inttoptr (i64 1 to ptr), %lean_obj_tag.exit ], [ inttoptr (i64 1 to ptr), %lean_obj_tag.exit31.thread ]
  ret ptr %.1
}